target datalayout = "e-m:e-p270:32:32-p271:32:32-p272:64:64-i64:64-i128:128-f80:128-n8:16:32:64-S128"
target triple = "x86_64-pc-linux-gnu"

%struct.timeval = type { i64, i64 }
%struct.task_desc = type { ptr, ptr, %struct.timeval, ptr, ptr, ptr }

@stats_tls_key_once = internal global i32 0, align 4
@stats_tls_key = internal global i32 0, align 4
@IDLE_TASK = internal global ptr @.str.31, align 8

; Function Attrs: nounwind uwtable
define dso_local void @thrmgr_setactivetask(ptr noundef %0, ptr noundef %1) #0 {
  %3 = alloca ptr, align 8
  %4 = alloca ptr, align 8
  %5 = alloca ptr, align 8
  store ptr %0, ptr %3, align 8
  store ptr %1, ptr %4, align 8
  %6 = call i32 @pthread_once(ptr noundef @stats_tls_key_once, ptr noundef @stats_tls_key_alloc)
  %7 = load i32, ptr @stats_tls_key, align 4
  %8 = call ptr @pthread_getspecific(i32 noundef %7) #8
  store ptr %8, ptr %5, align 8
  %9 = load ptr, ptr %5, align 8
  %10 = icmp ne ptr %9, null
  br i1 %10, label %12, label %11

11:                                               ; preds = %2
  br label %36

12:                                               ; preds = %2
  %13 = load ptr, ptr %3, align 8
  %14 = load ptr, ptr %5, align 8
  %15 = getelementptr inbounds %struct.task_desc, ptr %14, i32 0, i32 0
  store ptr %13, ptr %15, align 8
  %16 = load ptr, ptr %4, align 8
  %17 = icmp ne ptr %16, null
  br i1 %17, label %18, label %36

18:                                               ; preds = %12
  %19 = load ptr, ptr %4, align 8
  %20 = load ptr, ptr @IDLE_TASK, align 8
  %21 = icmp eq ptr %19, %20
  br i1 %21, label %22, label %29

22:                                               ; preds = %18
  %23 = load ptr, ptr %5, align 8
  %24 = getelementptr inbounds %struct.task_desc, ptr %23, i32 0, i32 1
  %25 = load ptr, ptr %24, align 8
  %26 = load ptr, ptr %4, align 8
  %27 = icmp eq ptr %25, %26
  br i1 %27, label %28, label %29

28:                                               ; preds = %22
  br label %36

29:                                               ; preds = %22, %18
  %30 = load ptr, ptr %4, align 8
  %31 = load ptr, ptr %5, align 8
  %32 = getelementptr inbounds %struct.task_desc, ptr %31, i32 0, i32 1
  store ptr %30, ptr %32, align 8
  %33 = load ptr, ptr %5, align 8
  %34 = getelementptr inbounds %struct.task_desc, ptr %33, i32 0, i32 2
  %35 = call i32 @gettimeofday(ptr noundef %34, ptr noundef null) #8
  br label %36

36:                                               ; preds = %29, %28, %12, %11
  ret void
}