; Function Attrs: nounwind uwtable
define dso_local void @thrmgr_setactivetask(ptr noundef %0, ptr noundef %1) local_unnamed_addr #0 {
  %3 = tail call i32 @pthread_once(ptr noundef nonnull @stats_tls_key_once, ptr noundef nonnull @stats_tls_key_alloc) #12
  %4 = load i32, ptr @stats_tls_key, align 4
  %5 = tail call ptr @pthread_getspecific(i32 noundef %4) #12
  %.not = icmp eq ptr %5, null
  br i1 %.not, label %17, label %6

6:                                                ; preds = %2
  store ptr %0, ptr %5, align 8
  %.not11 = icmp eq ptr %1, null
  br i1 %.not11, label %17, label %7

7:                                                ; preds = %6
  %8 = icmp eq ptr %1, @.str.31
  br i1 %8, label %9, label %13

9:                                                ; preds = %7
  %10 = getelementptr inbounds i8, ptr %5, i64 8
  %11 = load ptr, ptr %10, align 8
  %12 = icmp eq ptr %11, @.str.31
  br i1 %12, label %17, label %13

13:                                               ; preds = %9, %7
  %14 = getelementptr inbounds i8, ptr %5, i64 8
  store ptr %1, ptr %14, align 8
  %15 = getelementptr inbounds i8, ptr %5, i64 16
  %16 = tail call i32 @gettimeofday(ptr noundef nonnull %15, ptr noundef null) #12
  br label %17

17:                                               ; preds = %9, %2, %13, %6
  ret void
}